target datalayout = "e-m:e-p270:32:32-p271:32:32-p272:64:64-i64:64-i128:128-f80:128-n8:16:32:64-S128"
target triple = "x86_64-pc-linux-gnu"

%"class.cv::videostab::IFrameSource" = type { ptr }
%"class.std::__shared_count" = type { ptr }
%"class.cv::videostab::(anonymous namespace)::VideoFileSourceImpl" = type { %"class.cv::videostab::IFrameSource", %"class.std::__cxx11::basic_string", i8, [7 x i8], %"class.cv::VideoCapture" }
%"class.std::__cxx11::basic_string" = type { %"struct.std::__cxx11::basic_string<char>::_Alloc_hider", i64, %union.anon }
%"struct.std::__cxx11::basic_string<char>::_Alloc_hider" = type { ptr }
%union.anon = type { i64, [8 x i8] }
%"class.cv::VideoCapture" = type <{ ptr, %"struct.cv::Ptr.0", %"struct.cv::Ptr.4", i8, [7 x i8] }>
%"struct.cv::Ptr.0" = type { %"class.std::shared_ptr.1" }
%"class.std::shared_ptr.1" = type { %"class.std::__shared_ptr.2" }
%"class.std::__shared_ptr.2" = type { ptr, %"class.std::__shared_count" }
%"struct.cv::Ptr.4" = type { %"class.std::shared_ptr.5" }
%"class.std::shared_ptr.5" = type { %"class.std::__shared_ptr.6" }
%"class.std::__shared_ptr.6" = type { ptr, %"class.std::__shared_count" }
%"class.cv::Mat" = type { i32, i32, i32, i32, ptr, ptr, ptr, ptr, ptr, ptr, %"struct.cv::MatSize", %"struct.cv::MatStep" }
%"struct.cv::MatSize" = type { ptr }
%"struct.cv::MatStep" = type { ptr, [2 x i64] }

; Function Attrs: mustprogress uwtable
define internal void @_ZN2cv9videostab12_GLOBAL__N_119VideoFileSourceImpl9nextFrameEv(ptr dead_on_unwind noalias writable sret(%"class.cv::Mat") align 8 %0, ptr noundef nonnull align 8 dereferenceable(96) %1) unnamed_addr #4 align 2 personality ptr @__gxx_personality_v0 {
  %3 = alloca ptr, align 8
  %4 = alloca ptr, align 8
  %5 = alloca %"class.cv::Mat", align 8
  %6 = alloca ptr, align 8
  %7 = alloca i32, align 4
  store ptr %0, ptr %3, align 8
  store ptr %1, ptr %4, align 8
  %8 = load ptr, ptr %4, align 8
  call void @_ZN2cv3MatC1Ev(ptr noundef nonnull align 8 dereferenceable(96) %5) #3
  %9 = getelementptr inbounds %"class.cv::videostab::(anonymous namespace)::VideoFileSourceImpl", ptr %8, i32 0, i32 4
  %10 = invoke noundef nonnull align 8 dereferenceable(41) ptr @_ZN2cv12VideoCapturersERNS_3MatE(ptr noundef nonnull align 8 dereferenceable(41) %9, ptr noundef nonnull align 8 dereferenceable(96) %5)
          to label %11 unwind label %20

11:                                               ; preds = %2
  %12 = getelementptr inbounds %"class.cv::videostab::(anonymous namespace)::VideoFileSourceImpl", ptr %8, i32 0, i32 2
  %13 = load i8, ptr %12, align 8
  %14 = trunc i8 %13 to i1
  br i1 %14, label %15, label %17

15:                                               ; preds = %11
  invoke void @_ZN2cv3MatC1ERKS0_(ptr noundef nonnull align 8 dereferenceable(96) %0, ptr noundef nonnull align 8 dereferenceable(96) %5)
          to label %16 unwind label %20

16:                                               ; preds = %15
  br label %19

17:                                               ; preds = %11
  invoke void @_ZNK2cv3Mat5cloneEv(ptr dead_on_unwind writable sret(%"class.cv::Mat") align 8 %0, ptr noundef nonnull align 8 dereferenceable(96) %5)
          to label %18 unwind label %20

18:                                               ; preds = %17
  br label %19

19:                                               ; preds = %18, %16
  call void @_ZN2cv3MatD1Ev(ptr noundef nonnull align 8 dereferenceable(96) %5) #3
  ret void

20:                                               ; preds = %17, %15, %2
  %21 = landingpad { ptr, i32 }
          cleanup
  %22 = extractvalue { ptr, i32 } %21, 0
  store ptr %22, ptr %6, align 8
  %23 = extractvalue { ptr, i32 } %21, 1
  store i32 %23, ptr %7, align 4
  call void @_ZN2cv3MatD1Ev(ptr noundef nonnull align 8 dereferenceable(96) %5) #3
  br label %24

24:                                               ; preds = %20
  %25 = load ptr, ptr %6, align 8
  %26 = load i32, ptr %7, align 4
  %27 = insertvalue { ptr, i32 } poison, ptr %25, 0
  %28 = insertvalue { ptr, i32 } %27, i32 %26, 1
  resume { ptr, i32 } %28
}