; Function Attrs: mustprogress uwtable
define internal void @_ZN2cv9videostab12_GLOBAL__N_119VideoFileSourceImpl9nextFrameEv(ptr dead_on_unwind noalias writable sret(%"class.cv::Mat") align 8 %0, ptr noundef nonnull align 8 dereferenceable(96) %1) unnamed_addr #3 align 2 personality ptr @__gxx_personality_v0 {
  %3 = alloca %"class.cv::Mat", align 8
  call void @_ZN2cv3MatC1Ev(ptr noundef nonnull align 8 dereferenceable(96) %3) #13
  %4 = getelementptr inbounds i8, ptr %1, i64 48
  %5 = invoke noundef nonnull align 8 dereferenceable(41) ptr @_ZN2cv12VideoCapturersERNS_3MatE(ptr noundef nonnull align 8 dereferenceable(41) %4, ptr noundef nonnull align 8 dereferenceable(96) %3)
          to label %6 unwind label %13

6:                                                ; preds = %2
  %7 = getelementptr inbounds i8, ptr %1, i64 40
  %8 = load i8, ptr %7, align 8
  %9 = trunc i8 %8 to i1
  br i1 %9, label %10, label %11

10:                                               ; preds = %6
  invoke void @_ZN2cv3MatC1ERKS0_(ptr noundef nonnull align 8 dereferenceable(96) %0, ptr noundef nonnull align 8 dereferenceable(96) %3)
          to label %12 unwind label %13

11:                                               ; preds = %6
  invoke void @_ZNK2cv3Mat5cloneEv(ptr dead_on_unwind writable sret(%"class.cv::Mat") align 8 %0, ptr noundef nonnull align 8 dereferenceable(96) %3)
          to label %12 unwind label %13

12:                                               ; preds = %11, %10
  call void @_ZN2cv3MatD1Ev(ptr noundef nonnull align 8 dereferenceable(96) %3) #13
  ret void

13:                                               ; preds = %11, %10, %2
  %14 = landingpad { ptr, i32 }
          cleanup
  call void @_ZN2cv3MatD1Ev(ptr noundef nonnull align 8 dereferenceable(96) %3) #13
  resume { ptr, i32 } %14
}